Certificate:
    Data:
        Version: 3 (0x2)
        Serial Number: 2 (0x2)
    Signature Algorithm: sha256WithRSAEncryption
        Issuer: C=CN, ST=Anhui, L=Hefei, O=KLQI, USTC, CN=Suzume
        Validity
            Not Before: Mar 27 13:48:27 2019 GMT
            Not After : Mar 24 13:48:27 2029 GMT
        Subject: C=CN, ST=Anhui, O=KLQI, USTC, CN=Suzume
        Subject Public Key Info:
            Public Key Algorithm: rsaEncryption
                Public-Key: (2048 bit)
                Modulus:
                    00:d0:2d:f6:3d:42:02:5b:65:f1:f2:ec:bb:42:49:
                    d8:0b:03:a1:b9:fa:5e:f3:d9:19:b0:8f:a3:4d:d0:
                    fe:2a:be:33:1e:76:4c:0e:4a:a1:db:74:f1:fc:b1:
                    a6:e6:a3:3f:d0:87:c0:10:0e:fe:0b:18:cc:61:81:
                    d0:b3:49:38:b1:d5:e5:58:52:18:05:10:35:d8:69:
                    99:97:cf:7a:44:6a:81:30:c7:69:73:01:c4:20:b7:
                    dd:9f:5c:2c:cf:9e:89:d0:e1:05:af:c6:78:dd:d0:
                    2d:1f:64:bb:b0:88:af:07:c5:4f:28:ec:71:4d:1a:
                    81:bf:c5:8b:ee:00:d2:dc:d6:b0:42:e7:fb:ea:2b:
                    16:cf:04:65:b1:06:d8:19:a9:25:7c:27:ca:6d:78:
                    dc:b6:76:a8:4b:80:e8:ff:8a:ce:34:2a:05:95:d5:
                    60:c4:41:ad:1c:c1:0e:04:9a:df:71:7e:4c:11:07:
                    2f:4d:f1:a5:c8:a0:98:cd:2d:ef:a2:68:63:8a:de:
                    87:e3:72:0a:35:90:9f:25:e0:c2:56:69:a1:35:24:
                    8c:a8:bf:77:ac:5b:8e:02:d1:71:17:4e:83:ae:cf:
                    b2:d5:d4:ca:31:09:2a:91:93:19:ca:41:25:76:ca:
                    b9:b9:a1:d6:6a:9e:cb:1d:df:9a:8c:bd:91:2e:6a:
                    69:c1
                Exponent: 65537 (0x10001)
        X509v3 extensions:
            X509v3 Subject Key Identifier: 
                C8:08:BD:06:6B:96:12:B7:61:9B:DB:80:44:60:3E:CA:65:1E:7C:0C
            X509v3 Authority Key Identifier: 
                keyid:47:AE:9E:C2:A6:BF:BE:2F:10:2B:DA:D2:78:88:AE:D8:73:25:8D:0B

            X509v3 Basic Constraints: 
                CA:FALSE
            X509v3 Key Usage: 
                Digital Signature, Key Encipherment
            X509v3 Subject Alternative Name: 
                DNS:*.imgur.com, DNS:imgur.com
    Signature Algorithm: sha256WithRSAEncryption
         4c:8a:8d:a6:d6:8c:08:b1:56:73:2b:e0:2a:64:09:a1:26:50:
         1d:ff:cf:98:3b:2f:a2:d3:8c:12:1a:70:43:13:c1:e7:b0:e8:
         6e:72:b3:8a:d7:cd:78:5d:2e:5c:96:1a:95:4f:36:b3:2f:e3:
         9f:be:f2:8f:2d:76:35:cf:52:18:77:8d:11:af:bd:be:eb:55:
         ab:6b:39:c2:c7:61:1e:75:b9:73:ac:40:6b:e0:26:a5:e6:ef:
         96:6a:15:d1:97:c2:5b:e3:7c:00:c1:69:4c:0e:a7:96:71:65:
         dc:8e:28:b1:3e:bb:84:21:97:7b:bf:40:21:b4:b6:0e:d2:b8:
         2a:90:91:ff:23:4d:bb:df:87:8c:b4:a3:4b:af:33:f2:d4:74:
         9f:fd:1b:43:df:3b:4d:c5:bd:5c:9b:a1:af:55:9a:06:8e:28:
         82:69:f0:c8:ed:0f:4d:02:33:d8:fc:cb:a8:03:6d:e1:2e:6b:
         19:4f:38:43:6d:b3:08:36:15:4e:21:d6:a2:81:50:85:03:38:
         8a:54:eb:3c:fb:21:6d:43:2d:b7:88:e8:31:64:4c:41:0b:c6:
         50:13:8c:32:a8:0f:85:23:2c:f6:e5:ed:d9:02:d4:bb:d2:af:
         31:e5:8c:ee:fd:73:ed:14:51:24:ea:d7:6e:0b:15:da:2f:02:
         75:5f:1a:68
-----BEGIN CERTIFICATE-----
MIIDjjCCAnagAwIBAgIBAjANBgkqhkiG9w0BAQsFADBTMQswCQYDVQQGEwJDTjEO
MAwGA1UECBMFQW5odWkxDjAMBgNVBAcTBUhlZmVpMRMwEQYDVQQKEwpLTFFJLCBV
U1RDMQ8wDQYDVQQDEwZTdXp1bWUwHhcNMTkwMzI3MTM0ODI3WhcNMjkwMzI0MTM0
ODI3WjBDMQswCQYDVQQGEwJDTjEOMAwGA1UECBMFQW5odWkxEzARBgNVBAoTCktM
UUksIFVTVEMxDzANBgNVBAMTBlN1enVtZTCCASIwDQYJKoZIhvcNAQEBBQADggEP
ADCCAQoCggEBANAt9j1CAltl8fLsu0JJ2AsDobn6XvPZGbCPo03Q/iq+Mx52TA5K
odt08fyxpuajP9CHwBAO/gsYzGGB0LNJOLHV5VhSGAUQNdhpmZfPekRqgTDHaXMB
xCC33Z9cLM+eidDhBa/GeN3QLR9ku7CIrwfFTyjscU0agb/Fi+4A0tzWsELn++or
Fs8EZbEG2BmpJXwnym143LZ2qEuA6P+KzjQqBZXVYMRBrRzBDgSa33F+TBEHL03x
pcigmM0t76JoY4reh+NyCjWQnyXgwlZpoTUkjKi/d6xbjgLRcRdOg67PstXUyjEJ
KpGTGcpBJXbKubmh1mqeyx3fmoy9kS5qacECAwEAAaN9MHswHQYDVR0OBBYEFMgI
vQZrlhK3YZvbgERgPsplHnwMMB8GA1UdIwQYMBaAFEeunsKmv74vECva0niIrthz
JY0LMAkGA1UdEwQCMAAwCwYDVR0PBAQDAgWgMCEGA1UdEQQaMBiCCyouaW1ndXIu
Y29tgglpbWd1ci5jb20wDQYJKoZIhvcNAQELBQADggEBAEyKjabWjAixVnMr4Cpk
CaEmUB3/z5g7L6LTjBIacEMTweew6G5ys4rXzXhdLlyWGpVPNrMv45++8o8tdjXP
Uhh3jRGvvb7rVatrOcLHYR51uXOsQGvgJqXm75ZqFdGXwlvjfADBaUwOp5ZxZdyO
KLE+u4Qhl3u/QCG0tg7SuCqQkf8jTbvfh4y0o0uvM/LUdJ/9G0PfO03FvVyboa9V
mgaOKIJp8MjtD00CM9j8y6gDbeEuaxlPOENtswg2FU4h1qKBUIUDOIpU6zz7IW1D
LbeI6DFkTEELxlATjDKoD4UjLPbl7dkC1LvSrzHljO79c+0UUSTq124LFdovAnVf
Gmg=
-----END CERTIFICATE-----
