Certificate:
    Data:
        Version: 3 (0x2)
        Serial Number: 3 (0x3)
    Signature Algorithm: sha256WithRSAEncryption
        Issuer: C=CN, ST=Anhui, L=Hefei, O=KLQI, USTC, CN=Suzume-ins
        Validity
            Not Before: May 29 14:16:40 2019 GMT
            Not After : Feb 13 14:16:40 2039 GMT
        Subject: C=CN, ST=Anhui, O=KLQI, USTC, CN=Suzume-ins
        Subject Public Key Info:
            Public Key Algorithm: rsaEncryption
                Public-Key: (2048 bit)
                Modulus:
                    00:d4:ae:53:bf:96:50:7a:2d:6f:ba:11:4a:55:f5:
                    5b:28:ed:77:af:71:b7:aa:28:d9:84:96:d2:5a:a4:
                    8a:26:99:cc:55:c3:44:29:db:3c:2f:99:ff:3a:d8:
                    2d:98:fa:2c:1e:73:e5:56:b8:38:ad:2a:51:ea:74:
                    89:c0:7b:3d:43:fe:35:15:18:11:24:be:20:b3:ea:
                    8d:5c:7b:e7:c8:d4:ca:e7:f5:d0:92:dd:e0:12:93:
                    a4:36:8a:b2:40:8a:3c:6d:8f:92:35:90:d7:85:de:
                    15:ce:28:31:50:60:81:e6:56:7c:49:4d:79:70:0a:
                    04:b6:f0:28:99:7a:f0:00:e4:54:c5:de:b1:fd:83:
                    b3:0c:b5:d2:31:cb:33:0e:4c:af:6d:35:c6:c7:b4:
                    2b:1b:01:12:b7:92:94:2f:75:26:4f:28:81:d1:0d:
                    a7:48:6a:7d:1d:8d:12:6a:71:37:d8:11:8e:88:ff:
                    f7:f5:c0:fd:e8:b5:83:b8:5f:d8:1b:7e:10:a9:41:
                    70:30:4a:29:7d:e2:e0:5b:80:b3:15:c1:5f:c0:85:
                    e6:8d:53:7e:bf:01:20:95:18:36:85:1f:c5:07:7f:
                    35:a3:c1:e6:4e:0c:13:3c:29:f1:2e:97:2a:74:7b:
                    f8:44:0d:7d:a3:04:04:76:e2:bf:3f:fa:5a:d8:1d:
                    b4:65
                Exponent: 65537 (0x10001)
        X509v3 extensions:
            X509v3 Subject Key Identifier: 
                47:8F:70:14:74:2F:B7:E6:F4:B3:22:7A:85:96:79:B2:95:17:07:A7
            X509v3 Authority Key Identifier: 
                keyid:48:D7:9B:7A:FC:1B:BB:CB:D9:E9:38:DB:9C:35:C4:59:7C:BB:06:85

            X509v3 Basic Constraints: 
                CA:FALSE
            X509v3 Key Usage: 
                Digital Signature, Key Encipherment
            X509v3 Subject Alternative Name: 
                DNS:*.instagram.com, DNS:instagram.com
    Signature Algorithm: sha256WithRSAEncryption
         a5:d8:b8:f1:8d:1f:a0:76:fb:a4:77:ad:ab:a2:02:23:22:b2:
         2f:1e:1d:2d:28:63:05:68:ad:da:f2:5a:8c:01:f4:2f:0e:15:
         2e:e5:86:63:12:e8:34:be:ed:c0:ed:22:6d:63:25:fa:0d:b1:
         8d:91:58:9a:65:14:b9:b8:b0:28:c2:c8:01:72:af:6d:c7:86:
         27:fc:3b:a0:4b:2d:67:56:41:a9:8c:6c:ea:f5:d1:e8:b6:8d:
         c7:aa:2b:d0:4b:76:f6:06:e1:c5:02:5b:e7:9d:e3:bd:68:38:
         44:96:1a:4f:aa:4c:72:7a:4f:8e:ad:1d:28:93:cb:42:33:81:
         ca:4e:4e:2d:33:0b:8c:06:4c:d7:8a:5d:83:96:eb:f8:35:43:
         0d:d9:df:fc:cb:0e:23:5d:a4:42:db:c8:06:bf:63:f9:70:30:
         17:75:19:61:82:86:7b:e3:3a:48:07:e9:b2:b6:02:07:71:bc:
         7f:f8:ec:9a:c6:9a:06:8a:0b:94:85:1a:48:7b:d4:e7:b9:fa:
         e1:01:3b:57:3c:aa:35:70:6f:80:ab:ab:c3:cd:b5:e3:33:50:
         3d:6e:37:37:09:a9:50:e7:5f:a1:de:d7:51:0f:8f:8e:bd:56:
         1b:d0:8e:89:00:4f:e4:1f:ef:c3:8c:f5:7c:57:72:9d:9c:e4:
         a8:b1:90:1f
-----BEGIN CERTIFICATE-----
MIIDoDCCAoigAwIBAgIBAzANBgkqhkiG9w0BAQsFADBXMQswCQYDVQQGEwJDTjEO
MAwGA1UECBMFQW5odWkxDjAMBgNVBAcTBUhlZmVpMRMwEQYDVQQKEwpLTFFJLCBV
U1RDMRMwEQYDVQQDEwpTdXp1bWUtaW5zMB4XDTE5MDUyOTE0MTY0MFoXDTM5MDIx
MzE0MTY0MFowRzELMAkGA1UEBhMCQ04xDjAMBgNVBAgTBUFuaHVpMRMwEQYDVQQK
EwpLTFFJLCBVU1RDMRMwEQYDVQQDEwpTdXp1bWUtaW5zMIIBIjANBgkqhkiG9w0B
AQEFAAOCAQ8AMIIBCgKCAQEA1K5Tv5ZQei1vuhFKVfVbKO13r3G3qijZhJbSWqSK
JpnMVcNEKds8L5n/OtgtmPosHnPlVrg4rSpR6nSJwHs9Q/41FRgRJL4gs+qNXHvn
yNTK5/XQkt3gEpOkNoqyQIo8bY+SNZDXhd4VzigxUGCB5lZ8SU15cAoEtvAomXrw
AORUxd6x/YOzDLXSMcszDkyvbTXGx7QrGwESt5KUL3UmTyiB0Q2nSGp9HY0SanE3
2BGOiP/39cD96LWDuF/YG34QqUFwMEopfeLgW4CzFcFfwIXmjVN+vwEglRg2hR/F
B381o8HmTgwTPCnxLpcqdHv4RA19owQEduK/P/pa2B20ZQIDAQABo4GGMIGDMB0G
A1UdDgQWBBRHj3AUdC+35vSzInqFlnmylRcHpzAfBgNVHSMEGDAWgBRI15t6/Bu7
y9npONucNcRZfLsGhTAJBgNVHRMEAjAAMAsGA1UdDwQEAwIFoDApBgNVHREEIjAg
gg8qLmluc3RhZ3JhbS5jb22CDWluc3RhZ3JhbS5jb20wDQYJKoZIhvcNAQELBQAD
ggEBAKXYuPGNH6B2+6R3rauiAiMisi8eHS0oYwVordryWowB9C8OFS7lhmMS6DS+
7cDtIm1jJfoNsY2RWJplFLm4sCjCyAFyr23Hhif8O6BLLWdWQamMbOr10ei2jceq
K9BLdvYG4cUCW+ed471oOESWGk+qTHJ6T46tHSiTy0IzgcpOTi0zC4wGTNeKXYOW
6/g1Qw3Z3/zLDiNdpELbyAa/Y/lwMBd1GWGChnvjOkgH6bK2AgdxvH/47JrGmgaK
C5SFGkh71Oe5+uEBO1c8qjVwb4Crq8PNteMzUD1uNzcJqVDnX6He11EPj469VhvQ
jokAT+Qf78OM9XxXcp2c5KixkB8=
-----END CERTIFICATE-----
