Certificate:
    Data:
        Version: 3 (0x2)
        Serial Number: 2 (0x2)
    Signature Algorithm: sha256WithRSAEncryption
        Issuer: C=CN, ST=Anhui, L=Hefei, O=KLQI, USTC, CN=Suzume
        Validity
            Not Before: May 10 07:20:45 2019 GMT
            Not After : Jan 25 07:20:45 2039 GMT
        Subject: C=CN, ST=Anhui, O=KLQI, USTC, CN=Suzume
        Subject Public Key Info:
            Public Key Algorithm: rsaEncryption
                Public-Key: (2048 bit)
                Modulus:
                    00:cc:61:b4:fc:73:fe:e4:8d:6d:79:93:e5:68:c1:
                    39:68:19:5b:c7:f2:67:97:1f:80:4a:1c:1b:28:e4:
                    d0:e9:68:fe:b5:41:b7:03:c0:76:75:5b:fa:37:62:
                    e3:4a:52:df:67:29:b1:53:6c:a3:72:c7:f9:22:6f:
                    5c:da:10:53:a3:7f:84:41:cd:43:d6:b5:80:e7:02:
                    7e:53:03:b8:2c:b9:de:a7:54:9b:0c:c4:81:c9:70:
                    ef:a4:06:99:24:ce:4c:af:6a:e6:5b:0e:64:d4:ec:
                    36:12:17:97:0d:2f:be:9a:1e:e1:e2:12:27:a7:7e:
                    0f:39:78:7a:86:fd:14:f8:ac:30:cf:c3:13:8b:e6:
                    ab:9d:44:a7:8b:7f:95:28:5b:44:8f:c6:ee:88:0c:
                    13:eb:1a:a2:d2:43:71:1a:3f:68:4e:64:3d:2c:73:
                    53:3a:16:57:a0:52:cb:da:14:7d:f9:59:ee:7f:59:
                    e7:2c:9c:34:f4:ef:5d:cc:ff:ca:93:d0:7c:64:f8:
                    fe:d7:59:d0:72:dd:3e:b9:77:67:63:57:4f:9d:fd:
                    93:90:3a:99:52:bc:70:34:cd:9b:bd:d5:c3:d1:20:
                    65:08:26:5e:40:ed:c0:9b:d8:e9:32:4c:27:30:64:
                    20:30:93:93:63:4b:25:57:79:b3:ee:76:78:a5:cc:
                    cf:57
                Exponent: 65537 (0x10001)
        X509v3 extensions:
            X509v3 Subject Key Identifier: 
                7F:1A:5C:FB:42:54:65:20:74:E0:40:16:73:7B:30:4F:EE:16:B2:A4
            X509v3 Authority Key Identifier: 
                keyid:7F:F0:2F:43:47:43:4E:E6:B7:A8:92:C6:86:9A:5B:C0:E2:C8:52:19

            X509v3 Basic Constraints: 
                CA:FALSE
            X509v3 Key Usage: 
                Digital Signature, Key Encipherment
            X509v3 Subject Alternative Name: 
                DNS:*.quora.com, DNS:quora.com, DNS:*.fs.quoracdn.net
    Signature Algorithm: sha256WithRSAEncryption
         4f:72:97:b4:95:62:50:e8:9e:73:b3:d8:ca:95:ba:4c:b8:f2:
         82:67:aa:44:c1:84:85:62:da:2b:d5:e6:11:58:27:12:ce:2c:
         bd:44:cb:ae:4e:25:41:6a:2a:08:4b:3a:69:8e:f4:bf:e3:c7:
         e7:66:6a:c5:9f:26:35:32:ae:27:51:ac:f6:e6:35:46:15:75:
         2b:1b:56:bb:d2:84:c9:57:24:07:d6:96:da:32:fd:91:c6:0b:
         fa:40:d2:47:f2:65:ea:28:6a:30:3c:f6:70:ec:66:0c:c6:3c:
         b0:5c:73:c7:a1:4f:6c:1f:a8:22:d2:9c:f6:f1:13:8f:ab:ac:
         e4:2c:51:ed:76:df:01:5b:0b:54:2e:bf:2d:71:07:72:64:b3:
         db:61:e9:c0:e5:73:d4:79:2a:1c:e8:41:ea:53:9f:45:23:c7:
         4a:c6:3d:4a:23:5e:3d:49:6f:c0:5b:ca:1e:77:34:58:77:40:
         e4:b2:24:20:70:b5:78:59:d9:46:05:3f:a5:69:a3:a4:82:5c:
         1c:f1:f2:a4:8b:f9:69:d4:e9:a4:f0:13:32:e3:15:ed:f0:f5:
         ed:8e:d8:f9:6c:7e:42:54:38:26:fa:24:59:bc:cf:94:43:bf:
         fa:20:9e:ba:1b:be:15:85:ab:9c:66:53:2d:a0:78:63:3b:c6:
         47:ef:70:30
-----BEGIN CERTIFICATE-----
MIIDozCCAougAwIBAgIBAjANBgkqhkiG9w0BAQsFADBTMQswCQYDVQQGEwJDTjEO
MAwGA1UECBMFQW5odWkxDjAMBgNVBAcTBUhlZmVpMRMwEQYDVQQKEwpLTFFJLCBV
U1RDMQ8wDQYDVQQDEwZTdXp1bWUwHhcNMTkwNTEwMDcyMDQ1WhcNMzkwMTI1MDcy
MDQ1WjBDMQswCQYDVQQGEwJDTjEOMAwGA1UECBMFQW5odWkxEzARBgNVBAoTCktM
UUksIFVTVEMxDzANBgNVBAMTBlN1enVtZTCCASIwDQYJKoZIhvcNAQEBBQADggEP
ADCCAQoCggEBAMxhtPxz/uSNbXmT5WjBOWgZW8fyZ5cfgEocGyjk0Olo/rVBtwPA
dnVb+jdi40pS32cpsVNso3LH+SJvXNoQU6N/hEHNQ9a1gOcCflMDuCy53qdUmwzE
gclw76QGmSTOTK9q5lsOZNTsNhIXlw0vvpoe4eISJ6d+Dzl4eob9FPisMM/DE4vm
q51Ep4t/lShbRI/G7ogME+saotJDcRo/aE5kPSxzUzoWV6BSy9oUfflZ7n9Z5yyc
NPTvXcz/ypPQfGT4/tdZ0HLdPrl3Z2NXT539k5A6mVK8cDTNm73Vw9EgZQgmXkDt
wJvY6TJMJzBkIDCTk2NLJVd5s+52eKXMz1cCAwEAAaOBkTCBjjAdBgNVHQ4EFgQU
fxpc+0JUZSB04EAWc3swT+4WsqQwHwYDVR0jBBgwFoAUf/AvQ0dDTua3qJLGhppb
wOLIUhkwCQYDVR0TBAIwADALBgNVHQ8EBAMCBaAwNAYDVR0RBC0wK4ILKi5xdW9y
YS5jb22CCXF1b3JhLmNvbYIRKi5mcy5xdW9yYWNkbi5uZXQwDQYJKoZIhvcNAQEL
BQADggEBAE9yl7SVYlDonnOz2MqVuky48oJnqkTBhIVi2ivV5hFYJxLOLL1Ey65O
JUFqKghLOmmO9L/jx+dmasWfJjUyridRrPbmNUYVdSsbVrvShMlXJAfWltoy/ZHG
C/pA0kfyZeooajA89nDsZgzGPLBcc8ehT2wfqCLSnPbxE4+rrOQsUe123wFbC1Qu
vy1xB3Jks9th6cDlc9R5KhzoQepTn0Ujx0rGPUojXj1Jb8Bbyh53NFh3QOSyJCBw
tXhZ2UYFP6Vpo6SCXBzx8qSL+WnU6aTwEzLjFe3w9e2O2PlsfkJUOCb6JFm8z5RD
v/ognrobvhWFq5xmUy2geGM7xkfvcDA=
-----END CERTIFICATE-----
