Certificate:
    Data:
        Version: 3 (0x2)
        Serial Number: 8 (0x8)
    Signature Algorithm: sha256WithRSAEncryption
        Issuer: C=CN, ST=Anhui, L=Hefei, O=KLQI, USTC, CN=Suzume-reddit-190602
        Validity
            Not Before: Jun  2 03:16:22 2019 GMT
            Not After : Feb 17 03:16:22 2039 GMT
        Subject: C=CN, ST=Anhui, O=KLQI, USTC, CN=Suzume-reddit-190602
        Subject Public Key Info:
            Public Key Algorithm: rsaEncryption
                Public-Key: (2048 bit)
                Modulus:
                    00:a3:62:4e:28:ba:73:72:a7:a6:ff:fb:d2:9e:56:
                    7c:2d:9d:7d:78:bf:71:7e:b4:d3:b3:03:8c:43:6b:
                    9e:7c:a2:ce:fd:44:98:7f:0e:e5:c0:36:35:56:ca:
                    15:7c:c9:f3:0d:b7:55:56:b5:65:d5:91:bd:5c:da:
                    36:c9:e2:a8:78:a0:85:2f:e2:d1:2b:96:6f:ad:35:
                    66:15:51:8e:86:e6:7d:3a:7a:f3:82:8b:a7:6f:2e:
                    a6:84:2c:de:3e:83:4b:46:73:89:91:32:79:bc:5b:
                    a1:ae:a7:01:53:8d:9a:1b:3e:db:9c:0f:4b:a3:05:
                    40:af:33:bc:20:49:56:6b:92:e7:db:c0:f6:58:a1:
                    2c:bf:48:de:ea:5e:da:db:db:b2:d5:9f:85:e6:2e:
                    a3:1d:2a:8b:b0:a4:cf:f4:a1:d8:94:b9:e0:d3:20:
                    83:5e:fb:5f:02:be:10:72:47:2a:8d:9d:b3:17:99:
                    95:0c:6c:7b:89:a9:d8:ea:20:c5:c5:b1:2e:cf:a9:
                    4e:72:96:8b:13:b5:b5:22:56:59:16:5a:06:28:ad:
                    3d:10:d2:6b:b7:23:99:d8:10:ec:47:5e:c8:90:63:
                    be:cd:55:40:85:b7:6c:cb:83:2b:39:b7:dc:36:e0:
                    b9:6a:5b:d1:f6:2a:aa:30:6c:eb:07:3a:9f:67:d1:
                    2a:1b
                Exponent: 65537 (0x10001)
        X509v3 extensions:
            X509v3 Subject Key Identifier: 
                F4:73:1C:30:39:04:40:2C:83:13:20:19:C9:4A:DE:25:9F:92:17:71
            X509v3 Authority Key Identifier: 
                keyid:52:59:A8:4F:31:66:55:FF:60:BD:D3:F2:C0:80:0D:9B:ED:E6:9F:EF

            X509v3 Basic Constraints: 
                CA:FALSE
            X509v3 Key Usage: 
                Digital Signature, Key Encipherment
            X509v3 Subject Alternative Name: 
                DNS:*.reddit.com, DNS:reddit.com, DNS:*.redd.it, DNS:redd.it, DNS:*.redditstatic.com, DNS:redditstatic.com, DNS:*.thumbs.redditmedia.com, DNS:*.redditmedia.com, DNS:redditmedia.com, DNS:*.redditinc.com, DNS:*.redditgifts.com
    Signature Algorithm: sha256WithRSAEncryption
         cb:73:98:0c:0e:ff:23:67:dc:9d:d4:1a:2d:c9:75:4a:f9:7f:
         89:7a:4a:70:0d:2c:f9:2f:d5:9a:8a:ea:35:37:10:04:9a:fd:
         d4:99:d3:9a:ff:c7:7a:53:8c:5c:08:02:8f:00:4a:c2:2e:35:
         d5:a3:0f:91:39:1b:11:34:ce:85:85:2c:b7:5d:bf:5b:44:06:
         13:b9:50:a4:1c:57:45:11:91:08:85:0b:d3:53:50:bb:c2:2a:
         52:ca:58:bb:3f:04:b2:79:c9:7f:1b:95:5e:13:cd:a8:da:2a:
         22:bd:4e:79:81:55:d1:68:ca:31:cf:05:33:05:6a:d0:4b:22:
         8a:70:1e:80:45:21:21:b4:87:23:af:da:3b:8c:31:04:3a:81:
         3f:b1:2d:c1:5f:60:d9:3f:b2:1e:33:df:c6:05:c5:a0:99:5d:
         28:9d:4e:b8:15:24:4e:fe:e7:63:51:e5:e7:97:6d:eb:78:97:
         06:8b:54:58:0e:1f:aa:f1:f6:fb:04:ff:87:d8:c8:d0:28:0f:
         0f:65:00:50:cf:e0:1c:91:b3:4d:be:70:72:a0:54:f5:4a:6d:
         12:d0:e4:53:5c:37:dd:f8:f8:41:39:1b:c4:04:2e:60:71:3c:
         7e:a0:21:56:0a:62:db:0a:b1:ce:34:d9:ab:67:ba:af:33:78:
         9f:a8:a9:ad
-----BEGIN CERTIFICATE-----
MIIETzCCAzegAwIBAgIBCDANBgkqhkiG9w0BAQsFADBhMQswCQYDVQQGEwJDTjEO
MAwGA1UECBMFQW5odWkxDjAMBgNVBAcTBUhlZmVpMRMwEQYDVQQKEwpLTFFJLCBV
U1RDMR0wGwYDVQQDExRTdXp1bWUtcmVkZGl0LTE5MDYwMjAeFw0xOTA2MDIwMzE2
MjJaFw0zOTAyMTcwMzE2MjJaMFExCzAJBgNVBAYTAkNOMQ4wDAYDVQQIEwVBbmh1
aTETMBEGA1UEChMKS0xRSSwgVVNUQzEdMBsGA1UEAxMUU3V6dW1lLXJlZGRpdC0x
OTA2MDIwggEiMA0GCSqGSIb3DQEBAQUAA4IBDwAwggEKAoIBAQCjYk4ounNyp6b/
+9KeVnwtnX14v3F+tNOzA4xDa558os79RJh/DuXANjVWyhV8yfMNt1VWtWXVkb1c
2jbJ4qh4oIUv4tErlm+tNWYVUY6G5n06evOCi6dvLqaELN4+g0tGc4mRMnm8W6Gu
pwFTjZobPtucD0ujBUCvM7wgSVZrkufbwPZYoSy/SN7qXtrb27LVn4XmLqMdKouw
pM/0odiUueDTIINe+18CvhByRyqNnbMXmZUMbHuJqdjqIMXFsS7PqU5ylosTtbUi
VlkWWgYorT0Q0mu3I5nYEOxHXsiQY77NVUCFt2zLgys5t9w24LlqW9H2KqowbOsH
Op9n0SobAgMBAAGjggEgMIIBHDAdBgNVHQ4EFgQU9HMcMDkEQCyDEyAZyUreJZ+S
F3EwHwYDVR0jBBgwFoAUUlmoTzFmVf9gvdPywIANm+3mn+8wCQYDVR0TBAIwADAL
BgNVHQ8EBAMCBaAwgcEGA1UdEQSBuTCBtoIMKi5yZWRkaXQuY29tggpyZWRkaXQu
Y29tggkqLnJlZGQuaXSCB3JlZGQuaXSCEioucmVkZGl0c3RhdGljLmNvbYIQcmVk
ZGl0c3RhdGljLmNvbYIYKi50aHVtYnMucmVkZGl0bWVkaWEuY29tghEqLnJlZGRp
dG1lZGlhLmNvbYIPcmVkZGl0bWVkaWEuY29tgg8qLnJlZGRpdGluYy5jb22CESou
cmVkZGl0Z2lmdHMuY29tMA0GCSqGSIb3DQEBCwUAA4IBAQDLc5gMDv8jZ9yd1Bot
yXVK+X+JekpwDSz5L9Waiuo1NxAEmv3UmdOa/8d6U4xcCAKPAErCLjXVow+RORsR
NM6FhSy3Xb9bRAYTuVCkHFdFEZEIhQvTU1C7wipSyli7PwSyecl/G5VeE82o2ioi
vU55gVXRaMoxzwUzBWrQSyKKcB6ARSEhtIcjr9o7jDEEOoE/sS3BX2DZP7IeM9/G
BcWgmV0onU64FSRO/udjUeXnl23reJcGi1RYDh+q8fb7BP+H2MjQKA8PZQBQz+Ac
kbNNvnByoFT1Sm0S0ORTXDfd+PhBORvEBC5gcTx+oCFWCmLbCrHONNmrZ7qvM3if
qKmt
-----END CERTIFICATE-----
